target datalayout = "e-m:e-p270:32:32-p271:32:32-p272:64:64-i64:64-i128:128-f80:128-n8:16:32:64-S128"
target triple = "x86_64-pc-linux-gnu"

%struct.pmix_object_t = type { %union.pthread_mutex_t, ptr, i32, %struct.pmix_tma }
%union.pthread_mutex_t = type { %struct.__pthread_mutex_s }
%struct.__pthread_mutex_s = type { i32, i32, i32, i32, i32, i16, i16, %struct.__pthread_internal_list }
%struct.__pthread_internal_list = type { ptr, ptr }
%struct.pmix_tma = type { ptr, ptr, ptr, ptr, ptr, ptr, ptr, ptr }
%struct.pmix_class_t = type { ptr, ptr, ptr, ptr, i32, i32, ptr, ptr, i64 }

@.str.5 = private unnamed_addr constant [15 x i8] c"iof_hnp_read.c\00", align 1
@.str.6 = private unnamed_addr constant [37 x i8] c"PMIX ERROR: %s in file %s at line %d\00", align 1
@.str.9 = private unnamed_addr constant [21 x i8] c"pthread_mutex_lock()\00", align 1

; Function Attrs: inlinehint nounwind uwtable
define internal void @pmix_tma_free(ptr noundef %0, ptr noundef %1) #2 {
  %3 = alloca ptr, align 8
  %4 = alloca ptr, align 8
  store ptr %0, ptr %3, align 8, !tbaa !60
  store ptr %1, ptr %4, align 8, !tbaa !9
  %5 = load ptr, ptr %3, align 8, !tbaa !60
  %6 = icmp ne ptr null, %5
  br i1 %6, label %7, label %13

7:                                                ; preds = %2
  %8 = load ptr, ptr %3, align 8, !tbaa !60
  %9 = getelementptr inbounds nuw %struct.pmix_tma, ptr %8, i32 0, i32 5
  %10 = load ptr, ptr %9, align 8, !tbaa !77
  %11 = load ptr, ptr %3, align 8, !tbaa !60
  %12 = load ptr, ptr %4, align 8, !tbaa !9
  call void %10(ptr noundef %11, ptr noundef %12)
  br label %15

13:                                               ; preds = %2
  %14 = load ptr, ptr %4, align 8, !tbaa !9
  call void @free(ptr noundef %14) #11
  br label %15

15:                                               ; preds = %13, %7
  ret void
}

; Function Attrs: inlinehint nounwind uwtable
define internal void @pmix_obj_run_destructors(ptr noundef %0) #2 {
  %2 = alloca ptr, align 8
  %3 = alloca ptr, align 8
  store ptr %0, ptr %2, align 8, !tbaa !44
  call void @llvm.lifetime.start.p0(i64 8, ptr %3) #11
  %4 = load ptr, ptr %2, align 8, !tbaa !44
  %5 = getelementptr inbounds nuw %struct.pmix_object_t, ptr %4, i32 0, i32 1
  %6 = load ptr, ptr %5, align 8, !tbaa !65
  %7 = getelementptr inbounds nuw %struct.pmix_class_t, ptr %6, i32 0, i32 7
  %8 = load ptr, ptr %7, align 8, !tbaa !74
  store ptr %8, ptr %3, align 8, !tbaa !9
  br label %9

9:                                                ; preds = %13, %1
  %10 = load ptr, ptr %3, align 8, !tbaa !9
  %11 = load ptr, ptr %10, align 8, !tbaa !9
  %12 = icmp ne ptr null, %11
  br i1 %12, label %13, label %19

13:                                               ; preds = %9
  %14 = load ptr, ptr %3, align 8, !tbaa !9
  %15 = load ptr, ptr %14, align 8, !tbaa !9
  %16 = load ptr, ptr %2, align 8, !tbaa !44
  call void %15(ptr noundef %16)
  %17 = load ptr, ptr %3, align 8, !tbaa !9
  %18 = getelementptr inbounds nuw ptr, ptr %17, i32 1
  store ptr %18, ptr %3, align 8, !tbaa !9
  br label %9, !llvm.loop !75

19:                                               ; preds = %9
  call void @llvm.lifetime.end.p0(i64 8, ptr %3) #11
  ret void
}

; Function Attrs: alwaysinline nounwind uwtable
define internal i32 @pmix_obj_update(ptr noundef %0, i32 noundef %1) #8 {
  %3 = alloca ptr, align 8
  %4 = alloca i32, align 4
  %5 = alloca i32, align 4
  store ptr %0, ptr %3, align 8, !tbaa !44
  store i32 %1, ptr %4, align 4, !tbaa !3
  call void @llvm.lifetime.start.p0(i64 4, ptr %5) #11
  %6 = load ptr, ptr %3, align 8, !tbaa !44
  %7 = getelementptr inbounds nuw %struct.pmix_object_t, ptr %6, i32 0, i32 0
  %8 = call i32 @pthread_mutex_lock(ptr noundef %7) #11
  store i32 %8, ptr %5, align 4, !tbaa !3
  %9 = load i32, ptr %5, align 4, !tbaa !3
  %10 = icmp eq i32 %9, 35
  br i1 %10, label %11, label %14

11:                                               ; preds = %2
  %12 = load i32, ptr %5, align 4, !tbaa !3
  %13 = call ptr @__errno_location() #12
  store i32 %12, ptr %13, align 4, !tbaa !3
  call void @perror(ptr noundef @.str.9)
  call void @abort() #14
  unreachable

14:                                               ; preds = %2
  %15 = load i32, ptr %4, align 4, !tbaa !3
  %16 = load ptr, ptr %3, align 8, !tbaa !44
  %17 = getelementptr inbounds nuw %struct.pmix_object_t, ptr %16, i32 0, i32 2
  %18 = load i32, ptr %17, align 8, !tbaa !66
  %19 = add nsw i32 %18, %15
  store i32 %19, ptr %17, align 8, !tbaa !66
  store i32 %19, ptr %5, align 4, !tbaa !3
  %20 = load ptr, ptr %3, align 8, !tbaa !44
  %21 = getelementptr inbounds nuw %struct.pmix_object_t, ptr %20, i32 0, i32 0
  %22 = call i32 @pthread_mutex_unlock(ptr noundef %21) #11
  %23 = load i32, ptr %5, align 4, !tbaa !3
  call void @llvm.lifetime.end.p0(i64 4, ptr %5) #11
  ret i32 %23
}

; Function Attrs: nounwind uwtable
define internal void @lkcbfunc(i32 noundef %0, ptr noundef %1) #0 {
  %3 = alloca i32, align 4
  %4 = alloca ptr, align 8
  %5 = alloca ptr, align 8
  %6 = alloca ptr, align 8
  store i32 %0, ptr %3, align 4, !tbaa !3
  store ptr %1, ptr %4, align 8, !tbaa !9
  call void @llvm.lifetime.start.p0(i64 8, ptr %5) #11
  %7 = load ptr, ptr %4, align 8, !tbaa !9
  store ptr %7, ptr %5, align 8, !tbaa !9
  %8 = load i32, ptr %3, align 4, !tbaa !3
  %9 = icmp ne i32 0, %8
  br i1 %9, label %10, label %20

10:                                               ; preds = %2
  br label %11

11:                                               ; preds = %10
  %12 = load i32, ptr %3, align 4, !tbaa !3
  %13 = icmp ne i32 -2, %12
  br i1 %13, label %14, label %17

14:                                               ; preds = %11
  %15 = load i32, ptr %3, align 4, !tbaa !3
  %16 = call ptr @PMIx_Error_string(i32 noundef %15)
  call void (i32, ptr, ...) @pmix_output(i32 noundef 0, ptr noundef @.str.6, ptr noundef %16, ptr noundef @.str.5, i32 noundef 59)
  br label %17

17:                                               ; preds = %14, %11
  br label %18

18:                                               ; preds = %17
  br label %19

19:                                               ; preds = %18
  br label %20

20:                                               ; preds = %19, %2
  br label %21

21:                                               ; preds = %20
  call void @llvm.lifetime.start.p0(i64 8, ptr %6) #11
  %22 = load ptr, ptr %5, align 8, !tbaa !9
  store ptr %22, ptr %6, align 8, !tbaa !44
  %23 = load ptr, ptr %6, align 8, !tbaa !44
  %24 = call i32 @pmix_obj_update(ptr noundef %23, i32 noundef -1)
  %25 = icmp eq i32 0, %24
  br i1 %25, label %26, label %40

26:                                               ; preds = %21
  %27 = load ptr, ptr %6, align 8, !tbaa !44
  call void @pmix_obj_run_destructors(ptr noundef %27)
  %28 = load ptr, ptr %6, align 8, !tbaa !44
  %29 = getelementptr inbounds nuw %struct.pmix_object_t, ptr %28, i32 0, i32 3
  %30 = getelementptr inbounds nuw %struct.pmix_tma, ptr %29, i32 0, i32 5
  %31 = load ptr, ptr %30, align 8, !tbaa !46
  %32 = icmp ne ptr null, %31
  br i1 %32, label %33, label %37

33:                                               ; preds = %26
  %34 = load ptr, ptr %6, align 8, !tbaa !44
  %35 = getelementptr inbounds nuw %struct.pmix_object_t, ptr %34, i32 0, i32 3
  %36 = load ptr, ptr %5, align 8, !tbaa !9
  call void @pmix_tma_free(ptr noundef %35, ptr noundef %36)
  br label %39

37:                                               ; preds = %26
  %38 = load ptr, ptr %5, align 8, !tbaa !9
  call void @free(ptr noundef %38) #11
  br label %39

39:                                               ; preds = %37, %33
  store ptr null, ptr %5, align 8, !tbaa !9
  br label %40

40:                                               ; preds = %39, %21
  call void @llvm.lifetime.end.p0(i64 8, ptr %6) #11
  br label %41

41:                                               ; preds = %40
  br label %42

42:                                               ; preds = %41
  call void @llvm.lifetime.end.p0(i64 8, ptr %5) #11
  ret void
}